target datalayout = "e-m:e-p270:32:32-p271:32:32-p272:64:64-i64:64-i128:128-f80:128-n8:16:32:64-S128"
target triple = "x86_64-pc-linux-gnu"

%struct.h5tools_str_t = type { ptr, i64, i64 }
%struct.h5tool_format_t = type { i8, ptr, ptr, ptr, ptr, ptr, ptr, ptr, ptr, ptr, ptr, ptr, ptr, ptr, ptr, ptr, ptr, ptr, i32, i32, i32, ptr, ptr, ptr, i32, ptr, ptr, ptr, ptr, ptr, ptr, ptr, ptr, ptr, ptr, ptr, ptr, ptr, ptr, ptr, ptr, i32, i64, ptr, ptr, ptr, ptr, ptr, i32, ptr, i32, i32, ptr, i32, ptr, ptr, ptr, ptr, i32, i32 }
%struct.h5tools_context_t = type { i64, i64, i32, i32, [32 x i64], [32 x i64], i32, i64, i32, i64, i32, i32, [32 x i64], [32 x i64], i64, ptr, ptr, i32, i32 }

@.str.269 = private unnamed_addr constant [13 x i8] c"COMMENT \22%s\22\00", align 1

; Function Attrs: nounwind uwtable
define void @h5tools_dump_comment(ptr noundef %0, ptr noundef %1, ptr noundef %2, i64 noundef %3) #0 {
  %5 = alloca ptr, align 8
  %6 = alloca ptr, align 8
  %7 = alloca ptr, align 8
  %8 = alloca i64, align 8
  %9 = alloca ptr, align 8
  %10 = alloca i64, align 8
  %11 = alloca i64, align 8
  %12 = alloca i64, align 8
  %13 = alloca %struct.h5tools_str_t, align 8
  %14 = alloca i64, align 8
  %15 = alloca i64, align 8
  %16 = alloca i32, align 4
  store ptr %0, ptr %5, align 8, !tbaa !8
  store ptr %1, ptr %6, align 8, !tbaa !10
  store ptr %2, ptr %7, align 8, !tbaa !12
  store i64 %3, ptr %8, align 8, !tbaa !14
  call void @llvm.lifetime.start.p0(i64 8, ptr %9) #10
  store ptr null, ptr %9, align 8, !tbaa !19
  call void @llvm.lifetime.start.p0(i64 8, ptr %10) #10
  store i64 -1, ptr %10, align 8, !tbaa !14
  call void @llvm.lifetime.start.p0(i64 8, ptr %11) #10
  store i64 0, ptr %11, align 8, !tbaa !14
  call void @llvm.lifetime.start.p0(i64 8, ptr %12) #10
  store i64 80, ptr %12, align 8, !tbaa !14
  call void @llvm.lifetime.start.p0(i64 24, ptr %13) #10
  call void @llvm.lifetime.start.p0(i64 8, ptr %14) #10
  %17 = load ptr, ptr %7, align 8, !tbaa !12
  %18 = getelementptr inbounds nuw %struct.h5tools_context_t, ptr %17, i32 0, i32 14
  %19 = load i64, ptr %18, align 8, !tbaa !26
  store i64 %19, ptr %14, align 8, !tbaa !14
  call void @llvm.lifetime.start.p0(i64 8, ptr %15) #10
  store i64 0, ptr %15, align 8, !tbaa !14
  %20 = load i64, ptr %8, align 8, !tbaa !14
  %21 = call i32 @H5VLquery_optional(i64 noundef %20, i32 noundef 9, i32 noundef 0, ptr noundef %15)
  %22 = load i64, ptr %15, align 8, !tbaa !14
  %23 = and i64 %22, 1
  %24 = icmp ne i64 %23, 0
  br i1 %24, label %26, label %25

25:                                               ; preds = %4
  store i32 1, ptr %16, align 4
  br label %74

26:                                               ; preds = %4
  call void @llvm.memset.p0.i64(ptr align 8 %13, i8 0, i64 24, i1 false)
  %27 = load ptr, ptr %6, align 8, !tbaa !10
  %28 = getelementptr inbounds nuw %struct.h5tool_format_t, ptr %27, i32 0, i32 41
  %29 = load i32, ptr %28, align 8, !tbaa !23
  %30 = icmp ugt i32 %29, 0
  br i1 %30, label %31, label %36

31:                                               ; preds = %26
  %32 = load ptr, ptr %6, align 8, !tbaa !10
  %33 = getelementptr inbounds nuw %struct.h5tool_format_t, ptr %32, i32 0, i32 41
  %34 = load i32, ptr %33, align 8, !tbaa !23
  %35 = zext i32 %34 to i64
  store i64 %35, ptr %12, align 8, !tbaa !14
  br label %36

36:                                               ; preds = %31, %26
  %37 = load i64, ptr %8, align 8, !tbaa !14
  %38 = load ptr, ptr %9, align 8, !tbaa !19
  %39 = load i64, ptr %11, align 8, !tbaa !14
  %40 = call i64 @H5Oget_comment(i64 noundef %37, ptr noundef %38, i64 noundef %39)
  store i64 %40, ptr %10, align 8, !tbaa !14
  %41 = load i64, ptr %10, align 8, !tbaa !14
  %42 = icmp sgt i64 %41, 0
  br i1 %42, label %43, label %73

43:                                               ; preds = %36
  %44 = load i64, ptr %10, align 8, !tbaa !14
  %45 = add nsw i64 %44, 1
  %46 = call noalias ptr @malloc(i64 noundef %45) #13
  store ptr %46, ptr %9, align 8, !tbaa !19
  %47 = load ptr, ptr %9, align 8, !tbaa !19
  %48 = icmp ne ptr %47, null
  br i1 %48, label %49, label %72

49:                                               ; preds = %43
  %50 = load i64, ptr %8, align 8, !tbaa !14
  %51 = load ptr, ptr %9, align 8, !tbaa !19
  %52 = load i64, ptr %10, align 8, !tbaa !14
  %53 = call i64 @H5Oget_comment(i64 noundef %50, ptr noundef %51, i64 noundef %52)
  store i64 %53, ptr %10, align 8, !tbaa !14
  %54 = load i64, ptr %10, align 8, !tbaa !14
  %55 = icmp sgt i64 %54, 0
  br i1 %55, label %56, label %70

56:                                               ; preds = %49
  %57 = load ptr, ptr %9, align 8, !tbaa !19
  %58 = load i64, ptr %10, align 8, !tbaa !14
  %59 = getelementptr inbounds i8, ptr %57, i64 %58
  store i8 0, ptr %59, align 1, !tbaa !93
  %60 = load ptr, ptr %7, align 8, !tbaa !12
  %61 = getelementptr inbounds nuw %struct.h5tools_context_t, ptr %60, i32 0, i32 2
  store i32 1, ptr %61, align 8, !tbaa !46
  %62 = call ptr @h5tools_str_reset(ptr noundef %13)
  %63 = load ptr, ptr %9, align 8, !tbaa !19
  %64 = call ptr (ptr, ptr, ...) @h5tools_str_append(ptr noundef %13, ptr noundef @.str.269, ptr noundef %63)
  %65 = load ptr, ptr %5, align 8, !tbaa !8
  %66 = load ptr, ptr %6, align 8, !tbaa !10
  %67 = load ptr, ptr %7, align 8, !tbaa !12
  %68 = load i64, ptr %12, align 8, !tbaa !14
  %69 = call zeroext i1 @h5tools_render_element(ptr noundef %65, ptr noundef %66, ptr noundef %67, ptr noundef %13, ptr noundef %14, i64 noundef %68, i64 noundef 0, i64 noundef 0)
  call void @h5tools_str_close(ptr noundef %13)
  br label %70

70:                                               ; preds = %56, %49
  %71 = load ptr, ptr %9, align 8, !tbaa !19
  call void @free(ptr noundef %71) #10
  br label %72

72:                                               ; preds = %70, %43
  br label %73

73:                                               ; preds = %72, %36
  store i32 0, ptr %16, align 4
  br label %74

74:                                               ; preds = %73, %25
  call void @llvm.lifetime.end.p0(i64 8, ptr %15) #10
  call void @llvm.lifetime.end.p0(i64 8, ptr %14) #10
  call void @llvm.lifetime.end.p0(i64 24, ptr %13) #10
  call void @llvm.lifetime.end.p0(i64 8, ptr %12) #10
  call void @llvm.lifetime.end.p0(i64 8, ptr %11) #10
  call void @llvm.lifetime.end.p0(i64 8, ptr %10) #10
  call void @llvm.lifetime.end.p0(i64 8, ptr %9) #10
  %75 = load i32, ptr %16, align 4
  switch i32 %75, label %77 [
    i32 0, label %76
    i32 1, label %76
  ]

76:                                               ; preds = %74, %74
  ret void

77:                                               ; preds = %74
  unreachable
}