; Function Attrs: nounwind uwtable
define void @h5tools_dump_comment(ptr noundef %0, ptr noundef %1, ptr noundef %2, i64 noundef %3) local_unnamed_addr #1 {
  %5 = alloca %struct.h5tools_str_t, align 8
  %6 = alloca i64, align 8
  %7 = alloca i64, align 8
  call void @llvm.lifetime.start.p0(i64 24, ptr nonnull %5) #12
  call void @llvm.lifetime.start.p0(i64 8, ptr nonnull %6) #12
  %8 = getelementptr inbounds nuw i8, ptr %2, i64 1088
  %9 = load i64, ptr %8, align 8, !tbaa !16
  store i64 %9, ptr %6, align 8, !tbaa !19
  call void @llvm.lifetime.start.p0(i64 8, ptr nonnull %7) #12
  store i64 0, ptr %7, align 8, !tbaa !19
  %10 = call i32 @H5VLquery_optional(i64 noundef %3, i32 noundef 9, i32 noundef 0, ptr noundef nonnull %7) #12
  %11 = load i64, ptr %7, align 8, !tbaa !19
  %12 = and i64 %11, 1
  %.not = icmp eq i64 %12, 0
  br i1 %.not, label %31, label %13

13:                                               ; preds = %4
  call void @llvm.memset.p0.i64(ptr noundef nonnull align 8 dereferenceable(24) %5, i8 0, i64 24, i1 false)
  %14 = getelementptr inbounds nuw i8, ptr %1, i64 320
  %15 = load i32, ptr %14, align 8, !tbaa !10
  %.not26 = icmp eq i32 %15, 0
  %narrow = select i1 %.not26, i32 80, i32 %15
  %spec.select = zext i32 %narrow to i64
  %16 = call i64 @H5Oget_comment(i64 noundef %3, ptr noundef null, i64 noundef 0) #12
  %17 = icmp sgt i64 %16, 0
  br i1 %17, label %18, label %31

18:                                               ; preds = %13
  %19 = add nuw nsw i64 %16, 1
  %20 = call noalias ptr @malloc(i64 noundef %19) #15
  %.not27 = icmp eq ptr %20, null
  br i1 %.not27, label %31, label %21

21:                                               ; preds = %18
  %22 = call i64 @H5Oget_comment(i64 noundef %3, ptr noundef nonnull %20, i64 noundef %16) #12
  %23 = icmp sgt i64 %22, 0
  br i1 %23, label %24, label %30

24:                                               ; preds = %21
  %25 = getelementptr inbounds nuw i8, ptr %20, i64 %22
  store i8 0, ptr %25, align 1, !tbaa !83
  %26 = getelementptr inbounds nuw i8, ptr %2, i64 16
  store i32 1, ptr %26, align 8, !tbaa !35
  %27 = call ptr @h5tools_str_reset(ptr noundef nonnull %5) #12
  %28 = call ptr (ptr, ptr, ...) @h5tools_str_append(ptr noundef nonnull %5, ptr noundef nonnull @.str.269, ptr noundef nonnull %20) #12
  %29 = call zeroext i1 @h5tools_render_element(ptr noundef %0, ptr noundef nonnull %1, ptr noundef nonnull %2, ptr noundef nonnull %5, ptr noundef nonnull %6, i64 noundef %spec.select, i64 noundef 0, i64 noundef 0) #12
  call void @h5tools_str_close(ptr noundef nonnull %5) #12
  br label %30

30:                                               ; preds = %24, %21
  call void @free(ptr noundef nonnull %20) #12
  br label %31

31:                                               ; preds = %13, %30, %18, %4
  call void @llvm.lifetime.end.p0(i64 8, ptr nonnull %7) #12
  call void @llvm.lifetime.end.p0(i64 8, ptr nonnull %6) #12
  call void @llvm.lifetime.end.p0(i64 24, ptr nonnull %5) #12
  ret void
}